target datalayout = "e-m:e-p270:32:32-p271:32:32-p272:64:64-i64:64-i128:128-f80:128-n8:16:32:64-S128"
target triple = "x86_64-pc-linux-gnu"

%struct.decNumber = type { i32, i32, i8, [1 x i8] }

@_ZL8d2utable = internal constant [50 x i8] c"\00\01\02\03\04\05\06\07\08\09\0A\0B\0C\0D\0E\0F\10\11\12\13\14\15\16\17\18\19\1A\1B\1C\1D\1E\1F !\22#$%&'()*+,-./01", align 16

; Function Attrs: mustprogress nounwind uwtable
define ptr @uprv_decNumberCopy_77(ptr noundef %0, ptr noundef %1) #2 {
  %3 = alloca ptr, align 8
  %4 = alloca ptr, align 8
  %5 = alloca ptr, align 8
  %6 = alloca ptr, align 8
  %7 = alloca ptr, align 8
  %8 = alloca ptr, align 8
  store ptr %0, ptr %4, align 8, !tbaa !3
  store ptr %1, ptr %5, align 8, !tbaa !3
  %9 = load ptr, ptr %4, align 8, !tbaa !3
  %10 = load ptr, ptr %5, align 8, !tbaa !3
  %11 = icmp eq ptr %9, %10
  br i1 %11, label %12, label %14

12:                                               ; preds = %2
  %13 = load ptr, ptr %4, align 8, !tbaa !3
  store ptr %13, ptr %3, align 8
  br label %92

14:                                               ; preds = %2
  %15 = load ptr, ptr %5, align 8, !tbaa !3
  %16 = getelementptr inbounds nuw %struct.decNumber, ptr %15, i32 0, i32 2
  %17 = load i8, ptr %16, align 4, !tbaa !9
  %18 = load ptr, ptr %4, align 8, !tbaa !3
  %19 = getelementptr inbounds nuw %struct.decNumber, ptr %18, i32 0, i32 2
  store i8 %17, ptr %19, align 4, !tbaa !9
  %20 = load ptr, ptr %5, align 8, !tbaa !3
  %21 = getelementptr inbounds nuw %struct.decNumber, ptr %20, i32 0, i32 1
  %22 = load i32, ptr %21, align 4, !tbaa !17
  %23 = load ptr, ptr %4, align 8, !tbaa !3
  %24 = getelementptr inbounds nuw %struct.decNumber, ptr %23, i32 0, i32 1
  store i32 %22, ptr %24, align 4, !tbaa !17
  %25 = load ptr, ptr %5, align 8, !tbaa !3
  %26 = getelementptr inbounds nuw %struct.decNumber, ptr %25, i32 0, i32 0
  %27 = load i32, ptr %26, align 4, !tbaa !16
  %28 = load ptr, ptr %4, align 8, !tbaa !3
  %29 = getelementptr inbounds nuw %struct.decNumber, ptr %28, i32 0, i32 0
  store i32 %27, ptr %29, align 4, !tbaa !16
  %30 = load ptr, ptr %5, align 8, !tbaa !3
  %31 = getelementptr inbounds nuw %struct.decNumber, ptr %30, i32 0, i32 3
  %32 = getelementptr inbounds [1 x i8], ptr %31, i64 0, i64 0
  %33 = load i8, ptr %32, align 1, !tbaa !13
  %34 = load ptr, ptr %4, align 8, !tbaa !3
  %35 = getelementptr inbounds nuw %struct.decNumber, ptr %34, i32 0, i32 3
  %36 = getelementptr inbounds [1 x i8], ptr %35, i64 0, i64 0
  store i8 %33, ptr %36, align 1, !tbaa !13
  %37 = load ptr, ptr %5, align 8, !tbaa !3
  %38 = getelementptr inbounds nuw %struct.decNumber, ptr %37, i32 0, i32 0
  %39 = load i32, ptr %38, align 4, !tbaa !16
  %40 = icmp sgt i32 %39, 1
  br i1 %40, label %41, label %90

41:                                               ; preds = %14
  call void @llvm.lifetime.start.p0(i64 8, ptr %6) #8
  call void @llvm.lifetime.start.p0(i64 8, ptr %7) #8
  call void @llvm.lifetime.start.p0(i64 8, ptr %8) #8
  %42 = load ptr, ptr %4, align 8, !tbaa !3
  %43 = getelementptr inbounds nuw %struct.decNumber, ptr %42, i32 0, i32 3
  %44 = getelementptr inbounds [1 x i8], ptr %43, i64 0, i64 0
  %45 = getelementptr inbounds i8, ptr %44, i64 1
  store ptr %45, ptr %8, align 8, !tbaa !11
  %46 = load ptr, ptr %5, align 8, !tbaa !3
  %47 = getelementptr inbounds nuw %struct.decNumber, ptr %46, i32 0, i32 3
  %48 = getelementptr inbounds [1 x i8], ptr %47, i64 0, i64 0
  %49 = load ptr, ptr %5, align 8, !tbaa !3
  %50 = getelementptr inbounds nuw %struct.decNumber, ptr %49, i32 0, i32 0
  %51 = load i32, ptr %50, align 4, !tbaa !16
  %52 = icmp sle i32 %51, 49
  br i1 %52, label %53, label %61

53:                                               ; preds = %41
  %54 = load ptr, ptr %5, align 8, !tbaa !3
  %55 = getelementptr inbounds nuw %struct.decNumber, ptr %54, i32 0, i32 0
  %56 = load i32, ptr %55, align 4, !tbaa !16
  %57 = sext i32 %56 to i64
  %58 = getelementptr inbounds [50 x i8], ptr @_ZL8d2utable, i64 0, i64 %57
  %59 = load i8, ptr %58, align 1, !tbaa !13
  %60 = zext i8 %59 to i32
  br label %68

61:                                               ; preds = %41
  %62 = load ptr, ptr %5, align 8, !tbaa !3
  %63 = getelementptr inbounds nuw %struct.decNumber, ptr %62, i32 0, i32 0
  %64 = load i32, ptr %63, align 4, !tbaa !16
  %65 = add nsw i32 %64, 1
  %66 = sub nsw i32 %65, 1
  %67 = sdiv i32 %66, 1
  br label %68

68:                                               ; preds = %61, %53
  %69 = phi i32 [ %60, %53 ], [ %67, %61 ]
  %70 = sext i32 %69 to i64
  %71 = getelementptr inbounds i8, ptr %48, i64 %70
  store ptr %71, ptr %6, align 8, !tbaa !11
  %72 = load ptr, ptr %5, align 8, !tbaa !3
  %73 = getelementptr inbounds nuw %struct.decNumber, ptr %72, i32 0, i32 3
  %74 = getelementptr inbounds [1 x i8], ptr %73, i64 0, i64 0
  %75 = getelementptr inbounds i8, ptr %74, i64 1
  store ptr %75, ptr %7, align 8, !tbaa !11
  br label %76

76:                                               ; preds = %84, %68
  %77 = load ptr, ptr %7, align 8, !tbaa !11
  %78 = load ptr, ptr %6, align 8, !tbaa !11
  %79 = icmp ult ptr %77, %78
  br i1 %79, label %80, label %89

80:                                               ; preds = %76
  %81 = load ptr, ptr %7, align 8, !tbaa !11
  %82 = load i8, ptr %81, align 1, !tbaa !13
  %83 = load ptr, ptr %8, align 8, !tbaa !11
  store i8 %82, ptr %83, align 1, !tbaa !13
  br label %84

84:                                               ; preds = %80
  %85 = load ptr, ptr %7, align 8, !tbaa !11
  %86 = getelementptr inbounds nuw i8, ptr %85, i32 1
  store ptr %86, ptr %7, align 8, !tbaa !11
  %87 = load ptr, ptr %8, align 8, !tbaa !11
  %88 = getelementptr inbounds nuw i8, ptr %87, i32 1
  store ptr %88, ptr %8, align 8, !tbaa !11
  br label %76, !llvm.loop !53

89:                                               ; preds = %76
  call void @llvm.lifetime.end.p0(i64 8, ptr %8) #8
  call void @llvm.lifetime.end.p0(i64 8, ptr %7) #8
  call void @llvm.lifetime.end.p0(i64 8, ptr %6) #8
  br label %90

90:                                               ; preds = %89, %14
  %91 = load ptr, ptr %4, align 8, !tbaa !3
  store ptr %91, ptr %3, align 8
  br label %92

92:                                               ; preds = %90, %12
  %93 = load ptr, ptr %3, align 8
  ret ptr %93
}