; Function Attrs: mustprogress nofree norecurse nosync nounwind memory(argmem: readwrite) uwtable
define noundef ptr @uprv_decNumberCopy_77(ptr noundef returned writeonly %0, ptr noundef readonly %1) local_unnamed_addr #0 {
  %3 = icmp eq ptr %0, %1
  br i1 %3, label %.loopexit, label %4

4:                                                ; preds = %2
  %5 = getelementptr inbounds nuw i8, ptr %1, i64 8
  %6 = load i8, ptr %5, align 4, !tbaa !3
  %7 = getelementptr inbounds nuw i8, ptr %0, i64 8
  store i8 %6, ptr %7, align 4, !tbaa !3
  %8 = getelementptr inbounds nuw i8, ptr %1, i64 4
  %9 = load i32, ptr %8, align 4, !tbaa !8
  %10 = getelementptr inbounds nuw i8, ptr %0, i64 4
  store i32 %9, ptr %10, align 4, !tbaa !8
  %11 = load i32, ptr %1, align 4, !tbaa !9
  store i32 %11, ptr %0, align 4, !tbaa !9
  %.ptr = getelementptr inbounds nuw i8, ptr %1, i64 9
  %12 = load i8, ptr %.ptr, align 1, !tbaa !10
  %13 = getelementptr inbounds nuw i8, ptr %0, i64 9
  store i8 %12, ptr %13, align 1, !tbaa !10
  %14 = load i32, ptr %1, align 4, !tbaa !9
  %15 = icmp sgt i32 %14, 1
  br i1 %15, label %16, label %.loopexit

16:                                               ; preds = %4
  %17 = getelementptr inbounds nuw i8, ptr %0, i64 10
  %18 = icmp samesign ult i32 %14, 50
  br i1 %18, label %19, label %.thread

.thread:                                          ; preds = %16
  %narrow34 = add nuw i32 %14, 9
  %.add35 = zext i32 %narrow34 to i64
  %.ptr3336 = getelementptr inbounds nuw i8, ptr %1, i64 %.add35
  br label %.lr.ph.preheader

19:                                               ; preds = %16
  %20 = zext nneg i32 %14 to i64
  %21 = getelementptr inbounds nuw [50 x i8], ptr @_ZL8d2utable, i64 0, i64 %20
  %22 = load i8, ptr %21, align 1, !tbaa !10
  %23 = zext i8 %22 to i64
  %24 = getelementptr inbounds nuw i8, ptr %1, i64 %23
  %.ptr33 = getelementptr inbounds nuw i8, ptr %24, i64 9
  br label %.lr.ph.preheader

.lr.ph.preheader:                                 ; preds = %19, %.thread
  %.ptr3337 = phi ptr [ %.ptr3336, %.thread ], [ %.ptr33, %19 ]
  %25 = getelementptr inbounds nuw i8, ptr %1, i64 10
  br label %.lr.ph

.lr.ph:                                           ; preds = %.lr.ph.preheader, %.lr.ph
  %.032 = phi ptr [ %28, %.lr.ph ], [ %17, %.lr.ph.preheader ]
  %.02631 = phi ptr [ %27, %.lr.ph ], [ %25, %.lr.ph.preheader ]
  %26 = load i8, ptr %.02631, align 1, !tbaa !10
  store i8 %26, ptr %.032, align 1, !tbaa !10
  %27 = getelementptr inbounds nuw i8, ptr %.02631, i64 1
  %28 = getelementptr inbounds nuw i8, ptr %.032, i64 1
  %29 = icmp ult ptr %27, %.ptr3337
  br i1 %29, label %.lr.ph, label %.loopexit, !llvm.loop !49

.loopexit:                                        ; preds = %.lr.ph, %4, %2
  ret ptr %0
}